target datalayout = "e-m:e-p270:32:32-p271:32:32-p272:64:64-i64:64-i128:128-f80:128-n8:16:32:64-S128"
target triple = "x86_64-pc-linux-gnu"

%struct.Gia_Man_t_ = type { ptr, ptr, i32, i32, i32, i32, ptr, ptr, i32, i32, i32, ptr, ptr, %struct.Vec_Int_t_, %struct.Vec_Int_t_, i32, i32, i32, %struct.Vec_Int_t_, ptr, ptr, ptr, i32, i32, i32, i32, ptr, ptr, ptr, ptr, ptr, i32, i32, ptr, i32, ptr, ptr, ptr, ptr, ptr, ptr, ptr, ptr, ptr, ptr, ptr, ptr, ptr, ptr, ptr, ptr, ptr, ptr, %struct.Vec_Int_t_, %struct.Vec_Int_t_, ptr, ptr, ptr, ptr, ptr, ptr, ptr, ptr, ptr, ptr, ptr, ptr, ptr, ptr, ptr, ptr, ptr, ptr, ptr, ptr, ptr, i32, float, float, ptr, ptr, i32, ptr, ptr, ptr, ptr, ptr, ptr, ptr, ptr, ptr, ptr, ptr, ptr, ptr, ptr, ptr, i64, i64, ptr, ptr, i32, i32, i32, i32, i32, i32, i32, i32, i32, i32, i32, i32, ptr, ptr, ptr, ptr, ptr, ptr, ptr, ptr, i32, i32, i32, ptr, i32, i32, ptr, ptr, ptr, ptr, ptr, ptr, i32, i32, ptr, %struct.Vec_Int_t_, %struct.Vec_Int_t_, %struct.Vec_Int_t_, ptr, ptr, ptr, i32, i32, i32, i32, ptr, ptr, ptr, ptr, ptr }
%struct.Vec_Int_t_ = type { i32, i32, ptr }
%struct.Gia_Obj_t_ = type <{ i64, i32 }>
%struct.Sbd_Man_t_ = type { ptr, ptr, ptr, ptr, ptr, ptr, ptr, [4 x ptr], ptr, ptr, ptr, [6 x i32], i32, i32, i64, i64, i64, i64, i64, i64, i64, i64, i64, ptr, ptr, i32, i32, ptr, ptr, ptr, ptr, ptr, ptr, ptr, ptr, [2 x ptr], ptr, ptr }

; Function Attrs: inlinehint nounwind uwtable
define internal i32 @Gia_ObjFaninId0(ptr noundef %0, i32 noundef %1) #3 {
  %3 = alloca ptr, align 8
  %4 = alloca i32, align 4
  store ptr %0, ptr %3, align 8, !tbaa !66
  store i32 %1, ptr %4, align 4, !tbaa !29
  %5 = load i32, ptr %4, align 4, !tbaa !29
  %6 = load ptr, ptr %3, align 8, !tbaa !66
  %7 = load i64, ptr %6, align 4
  %8 = and i64 %7, 536870911
  %9 = trunc i64 %8 to i32
  %10 = sub nsw i32 %5, %9
  ret i32 %10
}

; Function Attrs: inlinehint nounwind uwtable
define internal i32 @Gia_ObjId(ptr noundef %0, ptr noundef %1) #3 {
  %3 = alloca ptr, align 8
  %4 = alloca ptr, align 8
  store ptr %0, ptr %3, align 8, !tbaa !27
  store ptr %1, ptr %4, align 8, !tbaa !66
  %5 = load ptr, ptr %4, align 8, !tbaa !66
  %6 = load ptr, ptr %3, align 8, !tbaa !27
  %7 = getelementptr inbounds nuw %struct.Gia_Man_t_, ptr %6, i32 0, i32 6
  %8 = load ptr, ptr %7, align 8, !tbaa !67
  %9 = ptrtoint ptr %5 to i64
  %10 = ptrtoint ptr %8 to i64
  %11 = sub i64 %9, %10
  %12 = sdiv exact i64 %11, 12
  %13 = trunc i64 %12 to i32
  ret i32 %13
}

; Function Attrs: inlinehint nounwind uwtable
define internal ptr @Gia_ManObj(ptr noundef %0, i32 noundef %1) #3 {
  %3 = alloca ptr, align 8
  %4 = alloca i32, align 4
  store ptr %0, ptr %3, align 8, !tbaa !27
  store i32 %1, ptr %4, align 4, !tbaa !29
  %5 = load ptr, ptr %3, align 8, !tbaa !27
  %6 = getelementptr inbounds nuw %struct.Gia_Man_t_, ptr %5, i32 0, i32 6
  %7 = load ptr, ptr %6, align 8, !tbaa !67
  %8 = load i32, ptr %4, align 4, !tbaa !29
  %9 = sext i32 %8 to i64
  %10 = getelementptr inbounds %struct.Gia_Obj_t_, ptr %7, i64 %9
  ret ptr %10
}

; Function Attrs: inlinehint nounwind uwtable
define internal i32 @Abc_MaxInt(i32 noundef %0, i32 noundef %1) #3 {
  %3 = alloca i32, align 4
  %4 = alloca i32, align 4
  store i32 %0, ptr %3, align 4, !tbaa !29
  store i32 %1, ptr %4, align 4, !tbaa !29
  %5 = load i32, ptr %3, align 4, !tbaa !29
  %6 = load i32, ptr %4, align 4, !tbaa !29
  %7 = icmp sgt i32 %5, %6
  br i1 %7, label %8, label %10

8:                                                ; preds = %2
  %9 = load i32, ptr %3, align 4, !tbaa !29
  br label %12

10:                                               ; preds = %2
  %11 = load i32, ptr %4, align 4, !tbaa !29
  br label %12

12:                                               ; preds = %10, %8
  %13 = phi i32 [ %9, %8 ], [ %11, %10 ]
  ret i32 %13
}

; Function Attrs: inlinehint nounwind uwtable
define internal i32 @Vec_IntEntry(ptr noundef %0, i32 noundef %1) #3 {
  %3 = alloca ptr, align 8
  %4 = alloca i32, align 4
  store ptr %0, ptr %3, align 8, !tbaa !52
  store i32 %1, ptr %4, align 4, !tbaa !29
  %5 = load ptr, ptr %3, align 8, !tbaa !52
  %6 = getelementptr inbounds nuw %struct.Vec_Int_t_, ptr %5, i32 0, i32 2
  %7 = load ptr, ptr %6, align 8, !tbaa !70
  %8 = load i32, ptr %4, align 4, !tbaa !29
  %9 = sext i32 %8 to i64
  %10 = getelementptr inbounds i32, ptr %7, i64 %9
  %11 = load i32, ptr %10, align 4, !tbaa !29
  ret i32 %11
}

; Function Attrs: inlinehint nounwind uwtable
define internal i32 @Gia_ObjFaninId0p(ptr noundef %0, ptr noundef %1) #3 {
  %3 = alloca ptr, align 8
  %4 = alloca ptr, align 8
  store ptr %0, ptr %3, align 8, !tbaa !27
  store ptr %1, ptr %4, align 8, !tbaa !66
  %5 = load ptr, ptr %4, align 8, !tbaa !66
  %6 = load ptr, ptr %3, align 8, !tbaa !27
  %7 = load ptr, ptr %4, align 8, !tbaa !66
  %8 = call i32 @Gia_ObjId(ptr noundef %6, ptr noundef %7)
  %9 = call i32 @Gia_ObjFaninId0(ptr noundef %5, i32 noundef %8)
  ret i32 %9
}

; Function Attrs: inlinehint nounwind uwtable
define internal ptr @Gia_ManCo(ptr noundef %0, i32 noundef %1) #3 {
  %3 = alloca ptr, align 8
  %4 = alloca i32, align 4
  store ptr %0, ptr %3, align 8, !tbaa !27
  store i32 %1, ptr %4, align 4, !tbaa !29
  %5 = load ptr, ptr %3, align 8, !tbaa !27
  %6 = load ptr, ptr %3, align 8, !tbaa !27
  %7 = getelementptr inbounds nuw %struct.Gia_Man_t_, ptr %6, i32 0, i32 12
  %8 = load ptr, ptr %7, align 8, !tbaa !55
  %9 = load i32, ptr %4, align 4, !tbaa !29
  %10 = call i32 @Vec_IntEntry(ptr noundef %8, i32 noundef %9)
  %11 = call ptr @Gia_ManObj(ptr noundef %5, i32 noundef %10)
  ret ptr %11
}

; Function Attrs: inlinehint nounwind uwtable
define internal i32 @Vec_IntSize(ptr noundef %0) #3 {
  %2 = alloca ptr, align 8
  store ptr %0, ptr %2, align 8, !tbaa !52
  %3 = load ptr, ptr %2, align 8, !tbaa !52
  %4 = getelementptr inbounds nuw %struct.Vec_Int_t_, ptr %3, i32 0, i32 1
  %5 = load i32, ptr %4, align 4, !tbaa !65
  ret i32 %5
}

; Function Attrs: nounwind uwtable
define i32 @Sbd_ManDelay(ptr noundef %0) #0 {
  %2 = alloca ptr, align 8
  %3 = alloca i32, align 4
  %4 = alloca i32, align 4
  %5 = alloca i32, align 4
  store ptr %0, ptr %2, align 8, !tbaa !73
  call void @llvm.lifetime.start.p0(i64 4, ptr %3) #13
  call void @llvm.lifetime.start.p0(i64 4, ptr %4) #13
  call void @llvm.lifetime.start.p0(i64 4, ptr %5) #13
  store i32 0, ptr %5, align 4, !tbaa !29
  store i32 0, ptr %3, align 4, !tbaa !29
  br label %6

6:                                                ; preds = %35, %1
  %7 = load i32, ptr %3, align 4, !tbaa !29
  %8 = load ptr, ptr %2, align 8, !tbaa !73
  %9 = getelementptr inbounds nuw %struct.Sbd_Man_t_, ptr %8, i32 0, i32 1
  %10 = load ptr, ptr %9, align 8, !tbaa !81
  %11 = getelementptr inbounds nuw %struct.Gia_Man_t_, ptr %10, i32 0, i32 12
  %12 = load ptr, ptr %11, align 8, !tbaa !55
  %13 = call i32 @Vec_IntSize(ptr noundef %12)
  %14 = icmp slt i32 %7, %13
  br i1 %14, label %15, label %25

15:                                               ; preds = %6
  %16 = load ptr, ptr %2, align 8, !tbaa !73
  %17 = getelementptr inbounds nuw %struct.Sbd_Man_t_, ptr %16, i32 0, i32 1
  %18 = load ptr, ptr %17, align 8, !tbaa !81
  %19 = load ptr, ptr %2, align 8, !tbaa !73
  %20 = getelementptr inbounds nuw %struct.Sbd_Man_t_, ptr %19, i32 0, i32 1
  %21 = load ptr, ptr %20, align 8, !tbaa !81
  %22 = load i32, ptr %3, align 4, !tbaa !29
  %23 = call ptr @Gia_ManCo(ptr noundef %21, i32 noundef %22)
  %24 = call i32 @Gia_ObjFaninId0p(ptr noundef %18, ptr noundef %23)
  store i32 %24, ptr %4, align 4, !tbaa !29
  br label %25

25:                                               ; preds = %15, %6
  %26 = phi i1 [ false, %6 ], [ true, %15 ]
  br i1 %26, label %27, label %38

27:                                               ; preds = %25
  %28 = load i32, ptr %5, align 4, !tbaa !29
  %29 = load ptr, ptr %2, align 8, !tbaa !73
  %30 = getelementptr inbounds nuw %struct.Sbd_Man_t_, ptr %29, i32 0, i32 3
  %31 = load ptr, ptr %30, align 8, !tbaa !83
  %32 = load i32, ptr %4, align 4, !tbaa !29
  %33 = call i32 @Vec_IntEntry(ptr noundef %31, i32 noundef %32)
  %34 = call i32 @Abc_MaxInt(i32 noundef %28, i32 noundef %33)
  store i32 %34, ptr %5, align 4, !tbaa !29
  br label %35

35:                                               ; preds = %27
  %36 = load i32, ptr %3, align 4, !tbaa !29
  %37 = add nsw i32 %36, 1
  store i32 %37, ptr %3, align 4, !tbaa !29
  br label %6, !llvm.loop !267

38:                                               ; preds = %25
  %39 = load i32, ptr %5, align 4, !tbaa !29
  call void @llvm.lifetime.end.p0(i64 4, ptr %5) #13
  call void @llvm.lifetime.end.p0(i64 4, ptr %4) #13
  call void @llvm.lifetime.end.p0(i64 4, ptr %3) #13
  ret i32 %39
}