; Function Attrs: nofree norecurse nosync nounwind memory(read, inaccessiblemem: none) uwtable
define range(i32 0, -2147483648) i32 @Sbd_ManDelay(ptr noundef readonly captures(none) %0) local_unnamed_addr #14 {
  %2 = getelementptr inbounds nuw i8, ptr %0, i64 8
  %3 = load ptr, ptr %2, align 8, !tbaa !75
  %4 = getelementptr inbounds nuw i8, ptr %3, i64 72
  %5 = load ptr, ptr %4, align 8, !tbaa !54
  %6 = getelementptr i8, ptr %5, i64 4
  %.val = load i32, ptr %6, align 4, !tbaa !48
  %7 = icmp sgt i32 %.val, 0
  br i1 %7, label %.lr.ph, label %.critedge

.lr.ph:                                           ; preds = %1
  %8 = getelementptr i8, ptr %3, i64 32
  %.val11 = load ptr, ptr %8, align 8, !tbaa !55
  %9 = getelementptr i8, ptr %5, i64 8
  %.val12.val = load ptr, ptr %9, align 8, !tbaa !49
  %10 = getelementptr inbounds nuw i8, ptr %0, i64 24
  %11 = load ptr, ptr %10, align 8, !tbaa !77
  %12 = getelementptr i8, ptr %11, i64 8
  %.val10 = load ptr, ptr %12, align 8, !tbaa !49
  %wide.trip.count = zext nneg i32 %.val to i64
  br label %13

13:                                               ; preds = %.lr.ph, %13
  %indvars.iv = phi i64 [ 0, %.lr.ph ], [ %indvars.iv.next, %13 ]
  %.015 = phi i32 [ 0, %.lr.ph ], [ %24, %13 ]
  %14 = getelementptr inbounds nuw i32, ptr %.val12.val, i64 %indvars.iv
  %15 = load i32, ptr %14, align 4, !tbaa !50
  %16 = sext i32 %15 to i64
  %17 = getelementptr inbounds %struct.Gia_Obj_t_, ptr %.val11, i64 %16
  %.val3.i = load i64, ptr %17, align 4
  %18 = trunc i64 %.val3.i to i32
  %19 = and i32 %18, 536870911
  %20 = sub nsw i32 %15, %19
  %21 = sext i32 %20 to i64
  %22 = getelementptr inbounds i32, ptr %.val10, i64 %21
  %23 = load i32, ptr %22, align 4, !tbaa !50
  %24 = tail call noundef i32 @llvm.smax.i32(i32 %.015, i32 %23)
  %indvars.iv.next = add nuw nsw i64 %indvars.iv, 1
  %exitcond.not = icmp eq i64 %indvars.iv.next, %wide.trip.count
  br i1 %exitcond.not, label %.critedge, label %13, !llvm.loop !253

.critedge:                                        ; preds = %13, %1
  %.0.lcssa = phi i32 [ 0, %1 ], [ %24, %13 ]
  ret i32 %.0.lcssa
}